target datalayout = "e-m:e-p270:32:32-p271:32:32-p272:64:64-i64:64-i128:128-f80:128-n8:16:32:64-S128"
target triple = "x86_64-unknown-linux-gnu"

%"struct.std::_Rb_tree_header" = type { %"struct.std::_Rb_tree_node_base", i64 }
%"struct.std::_Rb_tree_node_base" = type { i32, ptr, ptr, ptr }
%"class.std::map.118" = type { %"class.std::_Rb_tree.119" }
%"class.std::_Rb_tree.119" = type { %"struct.std::_Rb_tree<grpc_core::EndpointAddressSet, std::pair<const grpc_core::EndpointAddressSet, std::unique_ptr<grpc_core::(anonymous namespace)::RingHash::RingHashEndpoint, grpc_core::OrphanableDelete>>, std::_Select1st<std::pair<const grpc_core::EndpointAddressSet, std::unique_ptr<grpc_core::(anonymous namespace)::RingHash::RingHashEndpoint, grpc_core::OrphanableDelete>>>, std::less<grpc_core::EndpointAddressSet>>::_Rb_tree_impl" }
%"struct.std::_Rb_tree<grpc_core::EndpointAddressSet, std::pair<const grpc_core::EndpointAddressSet, std::unique_ptr<grpc_core::(anonymous namespace)::RingHash::RingHashEndpoint, grpc_core::OrphanableDelete>>, std::_Select1st<std::pair<const grpc_core::EndpointAddressSet, std::unique_ptr<grpc_core::(anonymous namespace)::RingHash::RingHashEndpoint, grpc_core::OrphanableDelete>>>, std::less<grpc_core::EndpointAddressSet>>::_Rb_tree_impl" = type { %"struct.std::_Rb_tree_key_compare.123", %"struct.std::_Rb_tree_header" }
%"struct.std::_Rb_tree_key_compare.123" = type { %"struct.std::less.124" }
%"struct.std::less.124" = type { i8 }

; Function Attrs: mustprogress nounwind uwtable
define internal void @_ZNSt15__new_allocatorISt13_Rb_tree_nodeISt4pairIKN9grpc_core18EndpointAddressSetESt10unique_ptrINS2_12_GLOBAL__N_18RingHash16RingHashEndpointENS2_16OrphanableDeleteEEEEED2Ev(ptr noundef nonnull align 1 dereferenceable(1) %this) unnamed_addr #5 align 2 {
entry:
  %this.addr = alloca ptr, align 8
  store ptr %this, ptr %this.addr, align 8
  ret void
}

; Function Attrs: mustprogress nounwind uwtable
define internal void @_ZNSaISt13_Rb_tree_nodeISt4pairIKN9grpc_core18EndpointAddressSetESt10unique_ptrINS1_12_GLOBAL__N_18RingHash16RingHashEndpointENS1_16OrphanableDeleteEEEEED2Ev(ptr noundef nonnull align 1 dereferenceable(1) %this) unnamed_addr #5 align 2 {
entry:
  %this.addr = alloca ptr, align 8
  store ptr %this, ptr %this.addr, align 8
  %this1 = load ptr, ptr %this.addr, align 8
  call void @_ZNSt15__new_allocatorISt13_Rb_tree_nodeISt4pairIKN9grpc_core18EndpointAddressSetESt10unique_ptrINS2_12_GLOBAL__N_18RingHash16RingHashEndpointENS2_16OrphanableDeleteEEEEED2Ev(ptr noundef nonnull align 1 dereferenceable(1) %this1) #3
  ret void
}

; Function Attrs: mustprogress nounwind uwtable
define internal noundef ptr @_ZNKSt8_Rb_treeIN9grpc_core18EndpointAddressSetESt4pairIKS1_St10unique_ptrINS0_12_GLOBAL__N_18RingHash16RingHashEndpointENS0_16OrphanableDeleteEEESt10_Select1stISA_ESt4lessIS1_ESaISA_EE9_M_mbeginEv(ptr noundef nonnull align 8 dereferenceable(48) %this) #5 align 2 {
entry:
  %this.addr = alloca ptr, align 8
  store ptr %this, ptr %this.addr, align 8
  %this1 = load ptr, ptr %this.addr, align 8
  %_M_impl = getelementptr inbounds %"class.std::_Rb_tree.119", ptr %this1, i32 0, i32 0
  %add.ptr = getelementptr inbounds i8, ptr %_M_impl, i64 8
  %_M_header = getelementptr inbounds %"struct.std::_Rb_tree_header", ptr %add.ptr, i32 0, i32 0
  %_M_parent = getelementptr inbounds %"struct.std::_Rb_tree_node_base", ptr %_M_header, i32 0, i32 1
  %0 = load ptr, ptr %_M_parent, align 8
  ret ptr %0
}

; Function Attrs: mustprogress nounwind uwtable
define internal void @_ZNSt8_Rb_treeIN9grpc_core18EndpointAddressSetESt4pairIKS1_St10unique_ptrINS0_12_GLOBAL__N_18RingHash16RingHashEndpointENS0_16OrphanableDeleteEEESt10_Select1stISA_ESt4lessIS1_ESaISA_EE13_Rb_tree_implISE_Lb1EED2Ev(ptr noundef nonnull align 8 dereferenceable(48) %this) unnamed_addr #5 align 2 {
entry:
  %this.addr = alloca ptr, align 8
  store ptr %this, ptr %this.addr, align 8
  %this1 = load ptr, ptr %this.addr, align 8
  call void @_ZNSaISt13_Rb_tree_nodeISt4pairIKN9grpc_core18EndpointAddressSetESt10unique_ptrINS1_12_GLOBAL__N_18RingHash16RingHashEndpointENS1_16OrphanableDeleteEEEEED2Ev(ptr noundef nonnull align 1 dereferenceable(1) %this1) #3
  ret void
}

; Function Attrs: mustprogress nounwind uwtable
define internal noundef ptr @_ZNSt8_Rb_treeIN9grpc_core18EndpointAddressSetESt4pairIKS1_St10unique_ptrINS0_12_GLOBAL__N_18RingHash16RingHashEndpointENS0_16OrphanableDeleteEEESt10_Select1stISA_ESt4lessIS1_ESaISA_EE8_M_beginEv(ptr noundef nonnull align 8 dereferenceable(48) %this) #5 align 2 {
entry:
  %this.addr = alloca ptr, align 8
  store ptr %this, ptr %this.addr, align 8
  %this1 = load ptr, ptr %this.addr, align 8
  %call = call noundef ptr @_ZNKSt8_Rb_treeIN9grpc_core18EndpointAddressSetESt4pairIKS1_St10unique_ptrINS0_12_GLOBAL__N_18RingHash16RingHashEndpointENS0_16OrphanableDeleteEEESt10_Select1stISA_ESt4lessIS1_ESaISA_EE9_M_mbeginEv(ptr noundef nonnull align 8 dereferenceable(48) %this1) #3
  ret ptr %call
}

; Function Attrs: mustprogress nounwind uwtable
define internal void @_ZNSt8_Rb_treeIN9grpc_core18EndpointAddressSetESt4pairIKS1_St10unique_ptrINS0_12_GLOBAL__N_18RingHash16RingHashEndpointENS0_16OrphanableDeleteEEESt10_Select1stISA_ESt4lessIS1_ESaISA_EED2Ev(ptr noundef nonnull align 8 dereferenceable(48) %this) unnamed_addr #5 align 2 personality ptr @__gxx_personality_v0 {
entry:
  %this.addr = alloca ptr, align 8
  store ptr %this, ptr %this.addr, align 8
  %this1 = load ptr, ptr %this.addr, align 8
  %call = call noundef ptr @_ZNSt8_Rb_treeIN9grpc_core18EndpointAddressSetESt4pairIKS1_St10unique_ptrINS0_12_GLOBAL__N_18RingHash16RingHashEndpointENS0_16OrphanableDeleteEEESt10_Select1stISA_ESt4lessIS1_ESaISA_EE8_M_beginEv(ptr noundef nonnull align 8 dereferenceable(48) %this1) #3
  invoke void @_ZNSt8_Rb_treeIN9grpc_core18EndpointAddressSetESt4pairIKS1_St10unique_ptrINS0_12_GLOBAL__N_18RingHash16RingHashEndpointENS0_16OrphanableDeleteEEESt10_Select1stISA_ESt4lessIS1_ESaISA_EE8_M_eraseEPSt13_Rb_tree_nodeISA_E(ptr noundef nonnull align 8 dereferenceable(48) %this1, ptr noundef %call)
          to label %invoke.cont unwind label %terminate.lpad

invoke.cont:                                      ; preds = %entry
  %_M_impl = getelementptr inbounds %"class.std::_Rb_tree.119", ptr %this1, i32 0, i32 0
  call void @_ZNSt8_Rb_treeIN9grpc_core18EndpointAddressSetESt4pairIKS1_St10unique_ptrINS0_12_GLOBAL__N_18RingHash16RingHashEndpointENS0_16OrphanableDeleteEEESt10_Select1stISA_ESt4lessIS1_ESaISA_EE13_Rb_tree_implISE_Lb1EED2Ev(ptr noundef nonnull align 8 dereferenceable(48) %_M_impl) #3
  ret void

terminate.lpad:                                   ; preds = %entry
  %0 = landingpad { ptr, i32 }
          catch ptr null
  %1 = extractvalue { ptr, i32 } %0, 0
  call void @__clang_call_terminate(ptr %1) #15
  unreachable
}

; Function Attrs: mustprogress nounwind uwtable
define internal void @_ZNSt3mapIN9grpc_core18EndpointAddressSetESt10unique_ptrINS0_12_GLOBAL__N_18RingHash16RingHashEndpointENS0_16OrphanableDeleteEESt4lessIS1_ESaISt4pairIKS1_S7_EEED2Ev(ptr noundef nonnull align 8 dereferenceable(48) %this) unnamed_addr #5 align 2 {
entry:
  %this.addr = alloca ptr, align 8
  store ptr %this, ptr %this.addr, align 8
  %this1 = load ptr, ptr %this.addr, align 8
  %_M_t = getelementptr inbounds %"class.std::map.118", ptr %this1, i32 0, i32 0
  call void @_ZNSt8_Rb_treeIN9grpc_core18EndpointAddressSetESt4pairIKS1_St10unique_ptrINS0_12_GLOBAL__N_18RingHash16RingHashEndpointENS0_16OrphanableDeleteEEESt10_Select1stISA_ESt4lessIS1_ESaISA_EED2Ev(ptr noundef nonnull align 8 dereferenceable(48) %_M_t) #3
  ret void
}