; Function Attrs: mustprogress nounwind uwtable
define internal fastcc void @_ZNSt3mapIN9grpc_core18EndpointAddressSetESt10unique_ptrINS0_12_GLOBAL__N_18RingHash16RingHashEndpointENS0_16OrphanableDeleteEESt4lessIS1_ESaISt4pairIKS1_S7_EEED2Ev(ptr nocapture noundef nonnull readonly align 8 dereferenceable(48) %this) unnamed_addr #4 align 2 personality ptr @__gxx_personality_v0 {
entry:
  %0 = getelementptr inbounds i8, ptr %this, i64 16
  %this.val.i = load ptr, ptr %0, align 8
  invoke fastcc void @_ZNSt8_Rb_treeIN9grpc_core18EndpointAddressSetESt4pairIKS1_St10unique_ptrINS0_12_GLOBAL__N_18RingHash16RingHashEndpointENS0_16OrphanableDeleteEEESt10_Select1stISA_ESt4lessIS1_ESaISA_EE8_M_eraseEPSt13_Rb_tree_nodeISA_E(ptr noundef %this.val.i)
          to label %_ZNSt8_Rb_treeIN9grpc_core18EndpointAddressSetESt4pairIKS1_St10unique_ptrINS0_12_GLOBAL__N_18RingHash16RingHashEndpointENS0_16OrphanableDeleteEEESt10_Select1stISA_ESt4lessIS1_ESaISA_EED2Ev.exit unwind label %terminate.lpad.i

terminate.lpad.i:                                 ; preds = %entry
  %1 = landingpad { ptr, i32 }
          catch ptr null
  %2 = extractvalue { ptr, i32 } %1, 0
  tail call void @__clang_call_terminate(ptr %2) #26
  unreachable

_ZNSt8_Rb_treeIN9grpc_core18EndpointAddressSetESt4pairIKS1_St10unique_ptrINS0_12_GLOBAL__N_18RingHash16RingHashEndpointENS0_16OrphanableDeleteEEESt10_Select1stISA_ESt4lessIS1_ESaISA_EED2Ev.exit: ; preds = %entry
  ret void
}